
Vending.elf:     file format elf32-avr

Sections:
Idx Name          Size      VMA       LMA       File off  Algn
  0 .data         0000004c  00800100  000004a8  0000051c  2**0
                  CONTENTS, ALLOC, LOAD, DATA
  1 .text         000004a8  00000000  00000000  00000074  2**1
                  CONTENTS, ALLOC, LOAD, READONLY, CODE
  2 .comment      00000030  00000000  00000000  00000568  2**0
                  CONTENTS, READONLY
  3 .note.gnu.avr.deviceinfo 00000040  00000000  00000000  00000598  2**2
                  CONTENTS, READONLY
  4 .debug_aranges 00000150  00000000  00000000  000005d8  2**0
                  CONTENTS, READONLY, DEBUGGING
  5 .debug_info   0000154d  00000000  00000000  00000728  2**0
                  CONTENTS, READONLY, DEBUGGING
  6 .debug_abbrev 00000ae6  00000000  00000000  00001c75  2**0
                  CONTENTS, READONLY, DEBUGGING
  7 .debug_line   00000c72  00000000  00000000  0000275b  2**0
                  CONTENTS, READONLY, DEBUGGING
  8 .debug_frame  00000370  00000000  00000000  000033d0  2**2
                  CONTENTS, READONLY, DEBUGGING
  9 .debug_str    000005af  00000000  00000000  00003740  2**0
                  CONTENTS, READONLY, DEBUGGING
 10 .debug_loc    00000cc8  00000000  00000000  00003cef  2**0
                  CONTENTS, READONLY, DEBUGGING
 11 .debug_ranges 00000118  00000000  00000000  000049b7  2**0
                  CONTENTS, READONLY, DEBUGGING

Disassembly of section .text:

00000000 <__vectors>:
   0:	0c 94 34 00 	jmp	0x68	; 0x68 <__ctors_end>
   4:	0c 94 49 00 	jmp	0x92	; 0x92 <__bad_interrupt>
   8:	0c 94 49 00 	jmp	0x92	; 0x92 <__bad_interrupt>
   c:	0c 94 49 00 	jmp	0x92	; 0x92 <__bad_interrupt>
  10:	0c 94 49 00 	jmp	0x92	; 0x92 <__bad_interrupt>
  14:	0c 94 49 00 	jmp	0x92	; 0x92 <__bad_interrupt>
  18:	0c 94 49 00 	jmp	0x92	; 0x92 <__bad_interrupt>
  1c:	0c 94 49 00 	jmp	0x92	; 0x92 <__bad_interrupt>
  20:	0c 94 49 00 	jmp	0x92	; 0x92 <__bad_interrupt>
  24:	0c 94 49 00 	jmp	0x92	; 0x92 <__bad_interrupt>
  28:	0c 94 49 00 	jmp	0x92	; 0x92 <__bad_interrupt>
  2c:	0c 94 49 00 	jmp	0x92	; 0x92 <__bad_interrupt>
  30:	0c 94 49 00 	jmp	0x92	; 0x92 <__bad_interrupt>
  34:	0c 94 49 00 	jmp	0x92	; 0x92 <__bad_interrupt>
  38:	0c 94 41 01 	jmp	0x282	; 0x282 <__vector_14>
  3c:	0c 94 49 00 	jmp	0x92	; 0x92 <__bad_interrupt>
  40:	0c 94 49 00 	jmp	0x92	; 0x92 <__bad_interrupt>
  44:	0c 94 49 00 	jmp	0x92	; 0x92 <__bad_interrupt>
  48:	0c 94 49 00 	jmp	0x92	; 0x92 <__bad_interrupt>
  4c:	0c 94 49 00 	jmp	0x92	; 0x92 <__bad_interrupt>
  50:	0c 94 49 00 	jmp	0x92	; 0x92 <__bad_interrupt>
  54:	0c 94 49 00 	jmp	0x92	; 0x92 <__bad_interrupt>
  58:	0c 94 49 00 	jmp	0x92	; 0x92 <__bad_interrupt>
  5c:	0c 94 49 00 	jmp	0x92	; 0x92 <__bad_interrupt>
  60:	0c 94 49 00 	jmp	0x92	; 0x92 <__bad_interrupt>
  64:	0c 94 49 00 	jmp	0x92	; 0x92 <__bad_interrupt>

00000068 <__ctors_end>:
  68:	11 24       	eor	r1, r1
  6a:	1f be       	out	0x3f, r1	; 63
  6c:	cf ef       	ldi	r28, 0xFF	; 255
  6e:	d8 e0       	ldi	r29, 0x08	; 8
  70:	de bf       	out	0x3e, r29	; 62
  72:	cd bf       	out	0x3d, r28	; 61

00000074 <__do_copy_data>:
  74:	11 e0       	ldi	r17, 0x01	; 1
  76:	a0 e0       	ldi	r26, 0x00	; 0
  78:	b1 e0       	ldi	r27, 0x01	; 1
  7a:	e8 ea       	ldi	r30, 0xA8	; 168
  7c:	f4 e0       	ldi	r31, 0x04	; 4
  7e:	02 c0       	rjmp	.+4      	; 0x84 <__do_copy_data+0x10>
  80:	05 90       	lpm	r0, Z+
  82:	0d 92       	st	X+, r0
  84:	ac 34       	cpi	r26, 0x4C	; 76
  86:	b1 07       	cpc	r27, r17
  88:	d9 f7       	brne	.-10     	; 0x80 <__do_copy_data+0xc>
  8a:	0e 94 93 01 	call	0x326	; 0x326 <main>
  8e:	0c 94 52 02 	jmp	0x4a4	; 0x4a4 <_exit>

00000092 <__bad_interrupt>:
  92:	0c 94 00 00 	jmp	0	; 0x0 <__vectors>

00000096 <atoi>:
int atoi(char *str)
{
  96:	fc 01       	movw	r30, r24
	int result;
	int puiss;

	result = 0;
	puiss = 1;
  98:	61 e0       	ldi	r22, 0x01	; 1
  9a:	70 e0       	ldi	r23, 0x00	; 0
	while (('-' == (*str)) || ((*str) == '+'))
  9c:	06 c0       	rjmp	.+12     	; 0xaa <atoi+0x14>
	{
		if (*str == '-')
  9e:	9d 32       	cpi	r25, 0x2D	; 45
  a0:	19 f4       	brne	.+6      	; 0xa8 <atoi+0x12>
		puiss = puiss * -1;
  a2:	71 95       	neg	r23
  a4:	61 95       	neg	r22
  a6:	71 09       	sbc	r23, r1
		str++;
  a8:	31 96       	adiw	r30, 0x01	; 1
	int result;
	int puiss;

	result = 0;
	puiss = 1;
	while (('-' == (*str)) || ((*str) == '+'))
  aa:	90 81       	ld	r25, Z
  ac:	9d 32       	cpi	r25, 0x2D	; 45
  ae:	b9 f3       	breq	.-18     	; 0x9e <atoi+0x8>
  b0:	9b 32       	cpi	r25, 0x2B	; 43
  b2:	a9 f3       	breq	.-22     	; 0x9e <atoi+0x8>
  b4:	20 e0       	ldi	r18, 0x00	; 0
  b6:	30 e0       	ldi	r19, 0x00	; 0
  b8:	12 c0       	rjmp	.+36     	; 0xde <atoi+0x48>
		puiss = puiss * -1;
		str++;
	}
	while ((*str >= '0') && (*str <= '9'))
	{
		result = (result * 10) + ((*str) - '0');
  ba:	a9 01       	movw	r20, r18
  bc:	44 0f       	add	r20, r20
  be:	55 1f       	adc	r21, r21
  c0:	22 0f       	add	r18, r18
  c2:	33 1f       	adc	r19, r19
  c4:	22 0f       	add	r18, r18
  c6:	33 1f       	adc	r19, r19
  c8:	22 0f       	add	r18, r18
  ca:	33 1f       	adc	r19, r19
  cc:	42 0f       	add	r20, r18
  ce:	53 1f       	adc	r21, r19
  d0:	29 2f       	mov	r18, r25
  d2:	30 e0       	ldi	r19, 0x00	; 0
  d4:	20 53       	subi	r18, 0x30	; 48
  d6:	31 09       	sbc	r19, r1
  d8:	24 0f       	add	r18, r20
  da:	35 1f       	adc	r19, r21
		str++;
  dc:	31 96       	adiw	r30, 0x01	; 1
	{
		if (*str == '-')
		puiss = puiss * -1;
		str++;
	}
	while ((*str >= '0') && (*str <= '9'))
  de:	90 81       	ld	r25, Z
  e0:	40 ed       	ldi	r20, 0xD0	; 208
  e2:	49 0f       	add	r20, r25
  e4:	4a 30       	cpi	r20, 0x0A	; 10
  e6:	48 f3       	brcs	.-46     	; 0xba <atoi+0x24>
	{
		result = (result * 10) + ((*str) - '0');
		str++;
	}
	return (result * puiss);
  e8:	26 9f       	mul	r18, r22
  ea:	c0 01       	movw	r24, r0
  ec:	27 9f       	mul	r18, r23
  ee:	90 0d       	add	r25, r0
  f0:	36 9f       	mul	r19, r22
  f2:	90 0d       	add	r25, r0
  f4:	11 24       	eor	r1, r1
  f6:	08 95       	ret

000000f8 <lcdSendNibble>:
    while (lcdIsBusy()) ;
  
    lcdRawSendByte((0b00011000 | dir), LCD_COMMAND);
    pos--;
  }  
}
  f8:	9a b1       	in	r25, 0x0a	; 10
  fa:	90 6e       	ori	r25, 0xE0	; 224
  fc:	9a b9       	out	0x0a, r25	; 10
  fe:	94 b1       	in	r25, 0x04	; 4
 100:	99 63       	ori	r25, 0x39	; 57
 102:	94 b9       	out	0x04, r25	; 4
 104:	9b b1       	in	r25, 0x0b	; 11
 106:	9f 7b       	andi	r25, 0xBF	; 191
 108:	9b b9       	out	0x0b, r25	; 11
 10a:	66 23       	and	r22, r22
 10c:	21 f0       	breq	.+8      	; 0x116 <lcdSendNibble+0x1e>
 10e:	9b b1       	in	r25, 0x0b	; 11
 110:	90 68       	ori	r25, 0x80	; 128
 112:	9b b9       	out	0x0b, r25	; 11
 114:	03 c0       	rjmp	.+6      	; 0x11c <lcdSendNibble+0x24>
 116:	9b b1       	in	r25, 0x0b	; 11
 118:	9f 77       	andi	r25, 0x7F	; 127
 11a:	9b b9       	out	0x0b, r25	; 11
 11c:	9b b1       	in	r25, 0x0b	; 11
 11e:	90 62       	ori	r25, 0x20	; 32
 120:	9b b9       	out	0x0b, r25	; 11
 122:	95 b1       	in	r25, 0x05	; 5
 124:	96 7c       	andi	r25, 0xC6	; 198
 126:	95 b9       	out	0x05, r25	; 5
 128:	83 ff       	sbrs	r24, 3
 12a:	03 c0       	rjmp	.+6      	; 0x132 <lcdSendNibble+0x3a>
 12c:	95 b1       	in	r25, 0x05	; 5
 12e:	90 62       	ori	r25, 0x20	; 32
 130:	95 b9       	out	0x05, r25	; 5
 132:	82 ff       	sbrs	r24, 2
 134:	03 c0       	rjmp	.+6      	; 0x13c <lcdSendNibble+0x44>
 136:	95 b1       	in	r25, 0x05	; 5
 138:	90 61       	ori	r25, 0x10	; 16
 13a:	95 b9       	out	0x05, r25	; 5
 13c:	81 ff       	sbrs	r24, 1
 13e:	03 c0       	rjmp	.+6      	; 0x146 <lcdSendNibble+0x4e>
 140:	95 b1       	in	r25, 0x05	; 5
 142:	98 60       	ori	r25, 0x08	; 8
 144:	95 b9       	out	0x05, r25	; 5
 146:	80 ff       	sbrs	r24, 0
 148:	03 c0       	rjmp	.+6      	; 0x150 <lcdSendNibble+0x58>
 14a:	85 b1       	in	r24, 0x05	; 5
 14c:	81 60       	ori	r24, 0x01	; 1
 14e:	85 b9       	out	0x05, r24	; 5
 150:	8a e1       	ldi	r24, 0x1A	; 26
 152:	8a 95       	dec	r24
 154:	f1 f7       	brne	.-4      	; 0x152 <lcdSendNibble+0x5a>
 156:	00 c0       	rjmp	.+0      	; 0x158 <lcdSendNibble+0x60>
 158:	8b b1       	in	r24, 0x0b	; 11
 15a:	8f 7d       	andi	r24, 0xDF	; 223
 15c:	8b b9       	out	0x0b, r24	; 11
 15e:	08 95       	ret

00000160 <lcdRawSendByte>:
 160:	cf 93       	push	r28
 162:	df 93       	push	r29
 164:	c8 2f       	mov	r28, r24
 166:	d6 2f       	mov	r29, r22
 168:	82 95       	swap	r24
 16a:	8f 70       	andi	r24, 0x0F	; 15
 16c:	0e 94 7c 00 	call	0xf8	; 0xf8 <lcdSendNibble>
 170:	6d 2f       	mov	r22, r29
 172:	8c 2f       	mov	r24, r28
 174:	0e 94 7c 00 	call	0xf8	; 0xf8 <lcdSendNibble>
 178:	df 91       	pop	r29
 17a:	cf 91       	pop	r28
 17c:	08 95       	ret

0000017e <lcdIsBusy>:
 17e:	8f e9       	ldi	r24, 0x9F	; 159
 180:	9f e0       	ldi	r25, 0x0F	; 15
 182:	01 97       	sbiw	r24, 0x01	; 1
 184:	f1 f7       	brne	.-4      	; 0x182 <lcdIsBusy+0x4>
 186:	00 c0       	rjmp	.+0      	; 0x188 <lcdIsBusy+0xa>
 188:	00 00       	nop
 18a:	80 e0       	ldi	r24, 0x00	; 0
 18c:	08 95       	ret

0000018e <lcdInit>:
 18e:	0e 94 bf 00 	call	0x17e	; 0x17e <lcdIsBusy>
 192:	81 11       	cpse	r24, r1
 194:	fc cf       	rjmp	.-8      	; 0x18e <lcdInit>
 196:	60 e0       	ldi	r22, 0x00	; 0
 198:	82 e0       	ldi	r24, 0x02	; 2
 19a:	0e 94 7c 00 	call	0xf8	; 0xf8 <lcdSendNibble>
 19e:	0e 94 bf 00 	call	0x17e	; 0x17e <lcdIsBusy>
 1a2:	81 11       	cpse	r24, r1
 1a4:	fc cf       	rjmp	.-8      	; 0x19e <lcdInit+0x10>
 1a6:	60 e0       	ldi	r22, 0x00	; 0
 1a8:	88 e2       	ldi	r24, 0x28	; 40
 1aa:	0e 94 b0 00 	call	0x160	; 0x160 <lcdRawSendByte>
 1ae:	0e 94 bf 00 	call	0x17e	; 0x17e <lcdIsBusy>
 1b2:	81 11       	cpse	r24, r1
 1b4:	fc cf       	rjmp	.-8      	; 0x1ae <lcdInit+0x20>
 1b6:	60 e0       	ldi	r22, 0x00	; 0
 1b8:	81 e0       	ldi	r24, 0x01	; 1
 1ba:	0e 94 b0 00 	call	0x160	; 0x160 <lcdRawSendByte>
 1be:	0e 94 bf 00 	call	0x17e	; 0x17e <lcdIsBusy>
 1c2:	81 11       	cpse	r24, r1
 1c4:	fc cf       	rjmp	.-8      	; 0x1be <lcdInit+0x30>
 1c6:	60 e0       	ldi	r22, 0x00	; 0
 1c8:	86 e0       	ldi	r24, 0x06	; 6
 1ca:	0e 94 b0 00 	call	0x160	; 0x160 <lcdRawSendByte>
 1ce:	0e 94 bf 00 	call	0x17e	; 0x17e <lcdIsBusy>
 1d2:	81 11       	cpse	r24, r1
 1d4:	fc cf       	rjmp	.-8      	; 0x1ce <lcdInit+0x40>
 1d6:	60 e0       	ldi	r22, 0x00	; 0
 1d8:	8c e0       	ldi	r24, 0x0C	; 12
 1da:	0e 94 b0 00 	call	0x160	; 0x160 <lcdRawSendByte>
 1de:	08 95       	ret

000001e0 <lcdSetCursor>:
 1e0:	cf 93       	push	r28
 1e2:	c8 2f       	mov	r28, r24
 1e4:	0e 94 bf 00 	call	0x17e	; 0x17e <lcdIsBusy>
 1e8:	81 11       	cpse	r24, r1
 1ea:	fc cf       	rjmp	.-8      	; 0x1e4 <lcdSetCursor+0x4>
 1ec:	60 e0       	ldi	r22, 0x00	; 0
 1ee:	8c 2f       	mov	r24, r28
 1f0:	8c 60       	ori	r24, 0x0C	; 12
 1f2:	0e 94 b0 00 	call	0x160	; 0x160 <lcdRawSendByte>
 1f6:	cf 91       	pop	r28
 1f8:	08 95       	ret

000001fa <lcdSetDisplay>:
 1fa:	cf 93       	push	r28
 1fc:	c8 2f       	mov	r28, r24
 1fe:	0e 94 bf 00 	call	0x17e	; 0x17e <lcdIsBusy>
 202:	81 11       	cpse	r24, r1
 204:	fc cf       	rjmp	.-8      	; 0x1fe <lcdSetDisplay+0x4>
 206:	60 e0       	ldi	r22, 0x00	; 0
 208:	8c 2f       	mov	r24, r28
 20a:	88 60       	ori	r24, 0x08	; 8
 20c:	0e 94 b0 00 	call	0x160	; 0x160 <lcdRawSendByte>
 210:	cf 91       	pop	r28
 212:	08 95       	ret

00000214 <lcdClear>:
 214:	0e 94 bf 00 	call	0x17e	; 0x17e <lcdIsBusy>
 218:	81 11       	cpse	r24, r1
 21a:	fc cf       	rjmp	.-8      	; 0x214 <lcdClear>
 21c:	60 e0       	ldi	r22, 0x00	; 0
 21e:	81 e0       	ldi	r24, 0x01	; 1
 220:	0e 94 b0 00 	call	0x160	; 0x160 <lcdRawSendByte>
 224:	08 95       	ret

00000226 <lcdGotoXY>:
 226:	cf 93       	push	r28
 228:	df 93       	push	r29
 22a:	d8 2f       	mov	r29, r24
 22c:	c6 2f       	mov	r28, r22
 22e:	0e 94 bf 00 	call	0x17e	; 0x17e <lcdIsBusy>
 232:	81 11       	cpse	r24, r1
 234:	fc cf       	rjmp	.-8      	; 0x22e <lcdGotoXY+0x8>
 236:	8c 2f       	mov	r24, r28
 238:	90 e4       	ldi	r25, 0x40	; 64
 23a:	d9 9f       	mul	r29, r25
 23c:	80 0d       	add	r24, r0
 23e:	11 24       	eor	r1, r1
 240:	60 e0       	ldi	r22, 0x00	; 0
 242:	80 68       	ori	r24, 0x80	; 128
 244:	0e 94 b0 00 	call	0x160	; 0x160 <lcdRawSendByte>
 248:	df 91       	pop	r29
 24a:	cf 91       	pop	r28
 24c:	08 95       	ret

0000024e <lcdPuts>:

/*
  Выводит строку из RAM в позицию курсора.
*/
void lcdPuts(char *str) {
 24e:	0f 93       	push	r16
 250:	1f 93       	push	r17
 252:	cf 93       	push	r28
 254:	df 93       	push	r29
 256:	ec 01       	movw	r28, r24
  while (*str){
 258:	0c c0       	rjmp	.+24     	; 0x272 <lcdPuts+0x24>
    while (lcdIsBusy()) ;
 25a:	0e 94 bf 00 	call	0x17e	; 0x17e <lcdIsBusy>
 25e:	81 11       	cpse	r24, r1
 260:	fc cf       	rjmp	.-8      	; 0x25a <lcdPuts+0xc>
    
    lcdRawSendByte(*str++, LCD_DATA);
 262:	8e 01       	movw	r16, r28
 264:	0f 5f       	subi	r16, 0xFF	; 255
 266:	1f 4f       	sbci	r17, 0xFF	; 255
 268:	61 e0       	ldi	r22, 0x01	; 1
 26a:	88 81       	ld	r24, Y
 26c:	0e 94 b0 00 	call	0x160	; 0x160 <lcdRawSendByte>
 270:	e8 01       	movw	r28, r16

/*
  Выводит строку из RAM в позицию курсора.
*/
void lcdPuts(char *str) {
  while (*str){
 272:	88 81       	ld	r24, Y
 274:	81 11       	cpse	r24, r1
 276:	f1 cf       	rjmp	.-30     	; 0x25a <lcdPuts+0xc>
    while (lcdIsBusy()) ;
    
    lcdRawSendByte(*str++, LCD_DATA);
  }
}
 278:	df 91       	pop	r29
 27a:	cf 91       	pop	r28
 27c:	1f 91       	pop	r17
 27e:	0f 91       	pop	r16
 280:	08 95       	ret

00000282 <__vector_14>:
#include "servo/Servo.h"
#include "function/Function.h"

bool input_number = true;

ISR (TIMER0_COMPA_vect){	 
 282:	1f 92       	push	r1
 284:	0f 92       	push	r0
 286:	0f b6       	in	r0, 0x3f	; 63
 288:	0f 92       	push	r0
 28a:	11 24       	eor	r1, r1
 28c:	0f 93       	push	r16
 28e:	1f 93       	push	r17
 290:	2f 93       	push	r18
 292:	3f 93       	push	r19
 294:	4f 93       	push	r20
 296:	5f 93       	push	r21
 298:	6f 93       	push	r22
 29a:	7f 93       	push	r23
 29c:	8f 93       	push	r24
 29e:	9f 93       	push	r25
 2a0:	af 93       	push	r26
 2a2:	bf 93       	push	r27
 2a4:	cf 93       	push	r28
 2a6:	df 93       	push	r29
 2a8:	ef 93       	push	r30
 2aa:	ff 93       	push	r31
	OCR1A=97;   //0 degree
 2ac:	08 e8       	ldi	r16, 0x88	; 136
 2ae:	10 e0       	ldi	r17, 0x00	; 0
 2b0:	81 e6       	ldi	r24, 0x61	; 97
 2b2:	90 e0       	ldi	r25, 0x00	; 0
 2b4:	f8 01       	movw	r30, r16
 2b6:	91 83       	std	Z+1, r25	; 0x01
 2b8:	80 83       	st	Z, r24
	OCR1B=97;   //0 degree
 2ba:	ca e8       	ldi	r28, 0x8A	; 138
 2bc:	d0 e0       	ldi	r29, 0x00	; 0
 2be:	99 83       	std	Y+1, r25	; 0x01
 2c0:	88 83       	st	Y, r24
	Wait();
 2c2:	0e 94 00 02 	call	0x400	; 0x400 <Wait>
	OCR1A=316;  //90 degree
 2c6:	8c e3       	ldi	r24, 0x3C	; 60
 2c8:	91 e0       	ldi	r25, 0x01	; 1
 2ca:	f8 01       	movw	r30, r16
 2cc:	91 83       	std	Z+1, r25	; 0x01
 2ce:	80 83       	st	Z, r24
	OCR1B=316;  //90 degree
 2d0:	99 83       	std	Y+1, r25	; 0x01
 2d2:	88 83       	st	Y, r24
	Wait();
 2d4:	0e 94 00 02 	call	0x400	; 0x400 <Wait>
	OCR1A=425;  //135 degree
 2d8:	89 ea       	ldi	r24, 0xA9	; 169
 2da:	91 e0       	ldi	r25, 0x01	; 1
 2dc:	f8 01       	movw	r30, r16
 2de:	91 83       	std	Z+1, r25	; 0x01
 2e0:	80 83       	st	Z, r24
	OCR1B=425;  //135 degree
 2e2:	99 83       	std	Y+1, r25	; 0x01
 2e4:	88 83       	st	Y, r24
	Wait();
 2e6:	0e 94 00 02 	call	0x400	; 0x400 <Wait>
	OCR1A=535;  //180 degree
 2ea:	87 e1       	ldi	r24, 0x17	; 23
 2ec:	92 e0       	ldi	r25, 0x02	; 2
 2ee:	f8 01       	movw	r30, r16
 2f0:	91 83       	std	Z+1, r25	; 0x01
 2f2:	80 83       	st	Z, r24
	OCR1B=535;  //180 degree
 2f4:	99 83       	std	Y+1, r25	; 0x01
 2f6:	88 83       	st	Y, r24
	Wait();
 2f8:	0e 94 00 02 	call	0x400	; 0x400 <Wait>
}
 2fc:	ff 91       	pop	r31
 2fe:	ef 91       	pop	r30
 300:	df 91       	pop	r29
 302:	cf 91       	pop	r28
 304:	bf 91       	pop	r27
 306:	af 91       	pop	r26
 308:	9f 91       	pop	r25
 30a:	8f 91       	pop	r24
 30c:	7f 91       	pop	r23
 30e:	6f 91       	pop	r22
 310:	5f 91       	pop	r21
 312:	4f 91       	pop	r20
 314:	3f 91       	pop	r19
 316:	2f 91       	pop	r18
 318:	1f 91       	pop	r17
 31a:	0f 91       	pop	r16
 31c:	0f 90       	pop	r0
 31e:	0f be       	out	0x3f, r0	; 63
 320:	0f 90       	pop	r0
 322:	1f 90       	pop	r1
 324:	18 95       	reti

00000326 <main>:

int main(void)
{
 326:	cf 93       	push	r28
 328:	df 93       	push	r29
 32a:	00 d0       	rcall	.+0      	; 0x32c <main+0x6>
 32c:	cd b7       	in	r28, 0x3d	; 61
 32e:	de b7       	in	r29, 0x3e	; 62
   input_number = 1;
 330:	81 e0       	ldi	r24, 0x01	; 1
 332:	80 93 00 01 	sts	0x0100, r24	; 0x800100 <__DATA_REGION_ORIGIN__>
   uint8_t bufSize = 2;
   char buf[bufSize];	
   SERVO_INIT();
 336:	0e 94 ec 01 	call	0x3d8	; 0x3d8 <SERVO_INIT>
   UART_init(103);
 33a:	87 e6       	ldi	r24, 0x67	; 103
 33c:	90 e0       	ldi	r25, 0x00	; 0
 33e:	0e 94 10 02 	call	0x420	; 0x420 <UART_init>
   lcdInit();
 342:	0e 94 c7 00 	call	0x18e	; 0x18e <lcdInit>
   lcdClear();
 346:	0e 94 0a 01 	call	0x214	; 0x214 <lcdClear>
   lcdSetDisplay(LCD_DISPLAY_ON);
 34a:	84 e0       	ldi	r24, 0x04	; 4
 34c:	0e 94 fd 00 	call	0x1fa	; 0x1fa <lcdSetDisplay>
   lcdSetCursor(LCD_CURSOR_OFF);
 350:	80 e0       	ldi	r24, 0x00	; 0
 352:	0e 94 f0 00 	call	0x1e0	; 0x1e0 <lcdSetCursor>
   lcdGotoXY(0, 0);
 356:	60 e0       	ldi	r22, 0x00	; 0
 358:	80 e0       	ldi	r24, 0x00	; 0
 35a:	0e 94 13 01 	call	0x226	; 0x226 <lcdGotoXY>
   lcdPuts("Vvedite nomer");
 35e:	81 e0       	ldi	r24, 0x01	; 1
 360:	91 e0       	ldi	r25, 0x01	; 1
 362:	0e 94 27 01 	call	0x24e	; 0x24e <lcdPuts>
   lcdGotoXY(1, 0);
 366:	60 e0       	ldi	r22, 0x00	; 0
 368:	81 e0       	ldi	r24, 0x01	; 1
 36a:	0e 94 13 01 	call	0x226	; 0x226 <lcdGotoXY>
   lcdPuts("tovara (1-10)");
 36e:	8f e0       	ldi	r24, 0x0F	; 15
 370:	91 e0       	ldi	r25, 0x01	; 1
 372:	0e 94 27 01 	call	0x24e	; 0x24e <lcdPuts>
   
   //Включение на вход ножек для кнопки купить и датчика падения
   DDRD |= (0<<PD2)|(0<<PD3);
 376:	8a b1       	in	r24, 0x0a	; 10
 378:	8a b9       	out	0x0a, r24	; 10
   PORTD |= (1<<PD2)|(1<<PD3);
 37a:	8b b1       	in	r24, 0x0b	; 11
 37c:	8c 60       	ori	r24, 0x0C	; 12
 37e:	8b b9       	out	0x0b, r24	; 11
   TCNT0=0x00;
   OCR0A=1;
   TIMSK0=(1<<OCIE0A);
   sei();*/
   
  if(input_number) {
 380:	80 91 00 01 	lds	r24, 0x0100	; 0x800100 <__DATA_REGION_ORIGIN__>
 384:	88 23       	and	r24, r24
 386:	59 f0       	breq	.+22     	; 0x39e <main+0x78>
	  UART_puts("Nomer tovara(1-10):");
 388:	8d e1       	ldi	r24, 0x1D	; 29
 38a:	91 e0       	ldi	r25, 0x01	; 1
 38c:	0e 94 21 02 	call	0x442	; 0x442 <UART_puts>
	  UART_getLine(buf, bufSize);
 390:	62 e0       	ldi	r22, 0x02	; 2
 392:	ce 01       	movw	r24, r28
 394:	01 96       	adiw	r24, 0x01	; 1
 396:	0e 94 35 02 	call	0x46a	; 0x46a <UART_getLine>
	  input_number = false;
 39a:	10 92 00 01 	sts	0x0100, r1	; 0x800100 <__DATA_REGION_ORIGIN__>
  }
  unsigned int item_number = atoi(buf);
 39e:	ce 01       	movw	r24, r28
 3a0:	01 96       	adiw	r24, 0x01	; 1
 3a2:	0e 94 4b 00 	call	0x96	; 0x96 <atoi>
  if(item_number == 1)
 3a6:	01 97       	sbiw	r24, 0x01	; 1
 3a8:	51 f4       	brne	.+20     	; 0x3be <main+0x98>
  {
	  lcdClear();
 3aa:	0e 94 0a 01 	call	0x214	; 0x214 <lcdClear>
	  lcdGotoXY(0, 0);
 3ae:	60 e0       	ldi	r22, 0x00	; 0
 3b0:	80 e0       	ldi	r24, 0x00	; 0
 3b2:	0e 94 13 01 	call	0x226	; 0x226 <lcdGotoXY>
	  lcdPuts("Stoit 65 rub");
 3b6:	81 e3       	ldi	r24, 0x31	; 49
 3b8:	91 e0       	ldi	r25, 0x01	; 1
 3ba:	0e 94 27 01 	call	0x24e	; 0x24e <lcdPuts>
	  item_number = 0;
  } 
  
  while(1)
  {  
	if(!(PIND&0b00000100)) UART_puts("Knopka nagata");
 3be:	4a 99       	sbic	0x09, 2	; 9
 3c0:	04 c0       	rjmp	.+8      	; 0x3ca <main+0xa4>
 3c2:	8e e3       	ldi	r24, 0x3E	; 62
 3c4:	91 e0       	ldi	r25, 0x01	; 1
 3c6:	0e 94 21 02 	call	0x442	; 0x442 <UART_puts>
	OCR1B=97;
 3ca:	81 e6       	ldi	r24, 0x61	; 97
 3cc:	90 e0       	ldi	r25, 0x00	; 0
 3ce:	90 93 8b 00 	sts	0x008B, r25	; 0x80008b <__TEXT_REGION_LENGTH__+0x7f808b>
 3d2:	80 93 8a 00 	sts	0x008A, r24	; 0x80008a <__TEXT_REGION_LENGTH__+0x7f808a>
  }
 3d6:	f3 cf       	rjmp	.-26     	; 0x3be <main+0x98>

000003d8 <SERVO_INIT>:
#include <util/delay.h>
#include "Servo.h"
void SERVO_INIT()
{
	//Configure TIMER1
	TCCR1A|=(1<<COM1A1)|(1<<COM1B1)|(1<<WGM11);        //NON Inverted PWM
 3d8:	e0 e8       	ldi	r30, 0x80	; 128
 3da:	f0 e0       	ldi	r31, 0x00	; 0
 3dc:	80 81       	ld	r24, Z
 3de:	82 6a       	ori	r24, 0xA2	; 162
 3e0:	80 83       	st	Z, r24
	TCCR1B|=(1<<WGM13)|(1<<WGM12)|(1<<CS11)|(1<<CS10); //PRESCALER=64 MODE 14(FAST PWM)
 3e2:	e1 e8       	ldi	r30, 0x81	; 129
 3e4:	f0 e0       	ldi	r31, 0x00	; 0
 3e6:	80 81       	ld	r24, Z
 3e8:	8b 61       	ori	r24, 0x1B	; 27
 3ea:	80 83       	st	Z, r24
	ICR1=4999;  //fPWM=50Hz (Period = 20ms Standard).
 3ec:	87 e8       	ldi	r24, 0x87	; 135
 3ee:	93 e1       	ldi	r25, 0x13	; 19
 3f0:	90 93 87 00 	sts	0x0087, r25	; 0x800087 <__TEXT_REGION_LENGTH__+0x7f8087>
 3f4:	80 93 86 00 	sts	0x0086, r24	; 0x800086 <__TEXT_REGION_LENGTH__+0x7f8086>
	DDRB|=(1<<PB1)|(1<<PB2);   //PWM Pins as Out
 3f8:	84 b1       	in	r24, 0x04	; 4
 3fa:	86 60       	ori	r24, 0x06	; 6
 3fc:	84 b9       	out	0x04, r24	; 4
 3fe:	08 95       	ret

00000400 <Wait>:

//Simple Wait Function
void Wait()
{
	uint8_t i;
	for(i=0;i<50;i++)
 400:	20 e0       	ldi	r18, 0x00	; 0
 402:	0b c0       	rjmp	.+22     	; 0x41a <Wait+0x1a>
    milliseconds can be achieved.
 */
void
_delay_loop_2(uint16_t __count)
{
	__asm__ volatile (
 404:	80 e0       	ldi	r24, 0x00	; 0
 406:	90 e0       	ldi	r25, 0x00	; 0
 408:	fc 01       	movw	r30, r24
 40a:	31 97       	sbiw	r30, 0x01	; 1
 40c:	f1 f7       	brne	.-4      	; 0x40a <Wait+0xa>
 40e:	fc 01       	movw	r30, r24
 410:	31 97       	sbiw	r30, 0x01	; 1
 412:	f1 f7       	brne	.-4      	; 0x410 <Wait+0x10>
 414:	01 97       	sbiw	r24, 0x01	; 1
 416:	f1 f7       	brne	.-4      	; 0x414 <Wait+0x14>
 418:	2f 5f       	subi	r18, 0xFF	; 255
 41a:	22 33       	cpi	r18, 0x32	; 50
 41c:	98 f3       	brcs	.-26     	; 0x404 <Wait+0x4>
		_delay_loop_2(0);
		_delay_loop_2(0);
		_delay_loop_2(0);
	}

}
 41e:	08 95       	ret

00000420 <UART_init>:
#include "UART.h"

void UART_init(uint16_t ubrr)
{
	// set baudrate in UBRR
	UBRR0L = (uint8_t)(ubrr & 0xFF);
 420:	80 93 c4 00 	sts	0x00C4, r24	; 0x8000c4 <__TEXT_REGION_LENGTH__+0x7f80c4>
	UBRR0H = (uint8_t)(ubrr >> 8);
 424:	90 93 c5 00 	sts	0x00C5, r25	; 0x8000c5 <__TEXT_REGION_LENGTH__+0x7f80c5>

	// enable the transmitter and receiver
	UCSR0B |= (1 << RXEN0) | (1 << TXEN0);
 428:	e1 ec       	ldi	r30, 0xC1	; 193
 42a:	f0 e0       	ldi	r31, 0x00	; 0
 42c:	80 81       	ld	r24, Z
 42e:	88 61       	ori	r24, 0x18	; 24
 430:	80 83       	st	Z, r24
 432:	08 95       	ret

00000434 <UART_putc>:
}

void UART_putc(unsigned char data)
{
	// wait for transmit buffer to be empty
	while (!( UCSR0A & (1<<UDRE0))); /* Wait for empty transmit buffer*/
 434:	90 91 c0 00 	lds	r25, 0x00C0	; 0x8000c0 <__TEXT_REGION_LENGTH__+0x7f80c0>
 438:	95 ff       	sbrs	r25, 5
 43a:	fc cf       	rjmp	.-8      	; 0x434 <UART_putc>

	// load data into transmit register
	UDR0 = data;
 43c:	80 93 c6 00 	sts	0x00C6, r24	; 0x8000c6 <__TEXT_REGION_LENGTH__+0x7f80c6>
 440:	08 95       	ret

00000442 <UART_puts>:
	// enable the transmitter and receiver
	UCSR0B |= (1 << RXEN0) | (1 << TXEN0);
}

void UART_puts(char* s)
{
 442:	cf 93       	push	r28
 444:	df 93       	push	r29
 446:	ec 01       	movw	r28, r24
	// transmit character until NULL is reached
	while(*s > 0) UART_putc(*s++);
 448:	03 c0       	rjmp	.+6      	; 0x450 <UART_puts+0xe>
 44a:	21 96       	adiw	r28, 0x01	; 1
 44c:	0e 94 1a 02 	call	0x434	; 0x434 <UART_putc>
 450:	88 81       	ld	r24, Y
 452:	81 11       	cpse	r24, r1
 454:	fa cf       	rjmp	.-12     	; 0x44a <UART_puts+0x8>
}
 456:	df 91       	pop	r29
 458:	cf 91       	pop	r28
 45a:	08 95       	ret

0000045c <UART_getc>:
}

unsigned char UART_getc(void)
{
	// wait for data
	while ( !(UCSR0A & (1<<RXC0)) );
 45c:	80 91 c0 00 	lds	r24, 0x00C0	; 0x8000c0 <__TEXT_REGION_LENGTH__+0x7f80c0>
 460:	88 23       	and	r24, r24
 462:	e4 f7       	brge	.-8      	; 0x45c <UART_getc>

	// return data
	return UDR0;
 464:	80 91 c6 00 	lds	r24, 0x00C6	; 0x8000c6 <__TEXT_REGION_LENGTH__+0x7f80c6>
}
 468:	08 95       	ret

0000046a <UART_getLine>:

void UART_getLine(char* buf, uint8_t n)
{
 46a:	0f 93       	push	r16
 46c:	1f 93       	push	r17
 46e:	cf 93       	push	r28
 470:	df 93       	push	r29
 472:	8c 01       	movw	r16, r24
 474:	d6 2f       	mov	r29, r22
	uint8_t bufIdx = 0;
 476:	c0 e0       	ldi	r28, 0x00	; 0
	// while received character is not carriage return
	// and end of buffer has not been reached
	do
	{
		// receive character
		c = UART_getc();
 478:	0e 94 2e 02 	call	0x45c	; 0x45c <UART_getc>

		// store character in buffer
		buf[bufIdx++] = c;
 47c:	91 e0       	ldi	r25, 0x01	; 1
 47e:	9c 0f       	add	r25, r28
 480:	f8 01       	movw	r30, r16
 482:	ec 0f       	add	r30, r28
 484:	f1 1d       	adc	r31, r1
 486:	80 83       	st	Z, r24
	}
	while((bufIdx < n) && (c != '\r'));
 488:	9d 17       	cp	r25, r29
 48a:	18 f4       	brcc	.+6      	; 0x492 <UART_getLine+0x28>
	{
		// receive character
		c = UART_getc();

		// store character in buffer
		buf[bufIdx++] = c;
 48c:	c9 2f       	mov	r28, r25
	}
	while((bufIdx < n) && (c != '\r'));
 48e:	8d 30       	cpi	r24, 0x0D	; 13
 490:	99 f7       	brne	.-26     	; 0x478 <UART_getLine+0xe>

	// ensure buffer is null terminated
	buf[bufIdx] = 0;
 492:	f8 01       	movw	r30, r16
 494:	e9 0f       	add	r30, r25
 496:	f1 1d       	adc	r31, r1
 498:	10 82       	st	Z, r1
}
 49a:	df 91       	pop	r29
 49c:	cf 91       	pop	r28
 49e:	1f 91       	pop	r17
 4a0:	0f 91       	pop	r16
 4a2:	08 95       	ret

000004a4 <_exit>:
 4a4:	f8 94       	cli

000004a6 <__stop_program>:
 4a6:	ff cf       	rjmp	.-2      	; 0x4a6 <__stop_program>
